target datalayout = "e-m:e-p270:32:32-p271:32:32-p272:64:64-i64:64-i128:128-f80:128-n8:16:32:64-S128"
target triple = "x86_64-unknown-linux-gnu"

%"class.std::__shared_count" = type { ptr }
%"class.std::shared_ptr.26" = type { %"class.std::__shared_ptr.27" }
%"class.std::__shared_ptr.27" = type { ptr, %"class.std::__shared_count" }

; Function Attrs: mustprogress uwtable
define hidden void @_ZN19OpenColorIO_v2_4dev28BuildDisplayToNamedTransformERNS_10OpRcPtrVecERKNS_6ConfigERKSt10shared_ptrIKNS_7ContextEERKS5_IKNS_10ColorSpaceEERKS5_IKNS_14NamedTransformEEb(ptr noundef nonnull align 8 dereferenceable(144) %ops, ptr noundef nonnull align 8 dereferenceable(8) %config, ptr noundef nonnull align 8 dereferenceable(16) %context, ptr noundef nonnull align 8 dereferenceable(16) %displayCS, ptr noundef nonnull align 8 dereferenceable(16) %viewNamedTransform, i1 noundef zeroext %dataBypass) #0 personality ptr @__gxx_personality_v0 {
entry:
  %ops.addr = alloca ptr, align 8
  %config.addr = alloca ptr, align 8
  %context.addr = alloca ptr, align 8
  %displayCS.addr = alloca ptr, align 8
  %viewNamedTransform.addr = alloca ptr, align 8
  %dataBypass.addr = alloca i8, align 1
  %transform = alloca %"class.std::shared_ptr.26", align 8
  %exn.slot = alloca ptr, align 8
  %ehselector.slot = alloca i32, align 4
  store ptr %ops, ptr %ops.addr, align 8
  store ptr %config, ptr %config.addr, align 8
  store ptr %context, ptr %context.addr, align 8
  store ptr %displayCS, ptr %displayCS.addr, align 8
  store ptr %viewNamedTransform, ptr %viewNamedTransform.addr, align 8
  %frombool = zext i1 %dataBypass to i8
  store i8 %frombool, ptr %dataBypass.addr, align 1
  %0 = load ptr, ptr %ops.addr, align 8
  %1 = load ptr, ptr %config.addr, align 8
  %2 = load ptr, ptr %context.addr, align 8
  %3 = load ptr, ptr %displayCS.addr, align 8
  %4 = load i8, ptr %dataBypass.addr, align 1
  %tobool = trunc i8 %4 to i1
  call void @_ZN19OpenColorIO_v2_4dev29BuildColorSpaceToReferenceOpsERNS_10OpRcPtrVecERKNS_6ConfigERKSt10shared_ptrIKNS_7ContextEERKS5_IKNS_10ColorSpaceEEb(ptr noundef nonnull align 8 dereferenceable(144) %0, ptr noundef nonnull align 8 dereferenceable(8) %1, ptr noundef nonnull align 8 dereferenceable(16) %2, ptr noundef nonnull align 8 dereferenceable(16) %3, i1 noundef zeroext %tobool)
  %5 = load ptr, ptr %viewNamedTransform.addr, align 8
  call void @_ZN19OpenColorIO_v2_4dev14NamedTransform12GetTransformERKSt10shared_ptrIKS0_ENS_18TransformDirectionE(ptr sret(%"class.std::shared_ptr.26") align 8 %transform, ptr noundef nonnull align 8 dereferenceable(16) %5, i32 noundef 1)
  %6 = load ptr, ptr %ops.addr, align 8
  %7 = load ptr, ptr %config.addr, align 8
  %8 = load ptr, ptr %context.addr, align 8
  invoke void @_ZN19OpenColorIO_v2_4dev8BuildOpsERNS_10OpRcPtrVecERKNS_6ConfigERKSt10shared_ptrIKNS_7ContextEERKS5_IKNS_9TransformEENS_18TransformDirectionE(ptr noundef nonnull align 8 dereferenceable(144) %6, ptr noundef nonnull align 8 dereferenceable(8) %7, ptr noundef nonnull align 8 dereferenceable(16) %8, ptr noundef nonnull align 8 dereferenceable(16) %transform, i32 noundef 0)
          to label %invoke.cont unwind label %lpad

invoke.cont:                                      ; preds = %entry
  call void @_ZNSt10shared_ptrIKN19OpenColorIO_v2_4dev9TransformEED2Ev(ptr noundef nonnull align 8 dereferenceable(16) %transform) #13
  ret void

lpad:                                             ; preds = %entry
  %9 = landingpad { ptr, i32 }
          cleanup
  %10 = extractvalue { ptr, i32 } %9, 0
  store ptr %10, ptr %exn.slot, align 8
  %11 = extractvalue { ptr, i32 } %9, 1
  store i32 %11, ptr %ehselector.slot, align 4
  call void @_ZNSt10shared_ptrIKN19OpenColorIO_v2_4dev9TransformEED2Ev(ptr noundef nonnull align 8 dereferenceable(16) %transform) #13
  br label %eh.resume

eh.resume:                                        ; preds = %lpad
  %exn = load ptr, ptr %exn.slot, align 8
  %sel = load i32, ptr %ehselector.slot, align 4
  %lpad.val = insertvalue { ptr, i32 } poison, ptr %exn, 0
  %lpad.val1 = insertvalue { ptr, i32 } %lpad.val, i32 %sel, 1
  resume { ptr, i32 } %lpad.val1
}